target datalayout = "e-m:e-p270:32:32-p271:32:32-p272:64:64-i64:64-i128:128-f80:128-n8:16:32:64-S128"
target triple = "x86_64-pc-linux-gnu"

%struct.LexState = type { ptr, ptr, %union.TValue, %union.TValue, ptr, ptr, i32, i32, i32, %struct.SBuf, ptr, ptr, i32, i32, ptr, ptr, ptr, ptr, i32, i32, ptr, i32, i32, i32, i32 }
%union.TValue = type { i64 }
%struct.SBuf = type { ptr, ptr, ptr, %struct.MRef }
%struct.MRef = type { i64 }

; Function Attrs: nounwind uwtable
define hidden void @lj_lex_next(ptr noundef %0) #0 {
  %2 = alloca ptr, align 8
  store ptr %0, ptr %2, align 8, !tbaa !9
  %3 = load ptr, ptr %2, align 8, !tbaa !9
  %4 = getelementptr inbounds nuw %struct.LexState, ptr %3, i32 0, i32 12
  %5 = load i32, ptr %4, align 8, !tbaa !33
  %6 = load ptr, ptr %2, align 8, !tbaa !9
  %7 = getelementptr inbounds nuw %struct.LexState, ptr %6, i32 0, i32 13
  store i32 %5, ptr %7, align 4, !tbaa !34
  %8 = load ptr, ptr %2, align 8, !tbaa !9
  %9 = getelementptr inbounds nuw %struct.LexState, ptr %8, i32 0, i32 8
  %10 = load i32, ptr %9, align 8, !tbaa !32
  %11 = icmp eq i32 %10, 289
  %12 = xor i1 %11, true
  %13 = xor i1 %12, true
  %14 = zext i1 %13 to i32
  %15 = sext i32 %14 to i64
  %16 = call i64 @llvm.expect.i64(i64 %15, i64 1)
  %17 = icmp ne i64 %16, 0
  br i1 %17, label %18, label %25

18:                                               ; preds = %1
  %19 = load ptr, ptr %2, align 8, !tbaa !9
  %20 = load ptr, ptr %2, align 8, !tbaa !9
  %21 = getelementptr inbounds nuw %struct.LexState, ptr %20, i32 0, i32 2
  %22 = call i32 @lex_scan(ptr noundef %19, ptr noundef %21)
  %23 = load ptr, ptr %2, align 8, !tbaa !9
  %24 = getelementptr inbounds nuw %struct.LexState, ptr %23, i32 0, i32 7
  store i32 %22, ptr %24, align 4, !tbaa !31
  br label %37

25:                                               ; preds = %1
  %26 = load ptr, ptr %2, align 8, !tbaa !9
  %27 = getelementptr inbounds nuw %struct.LexState, ptr %26, i32 0, i32 8
  %28 = load i32, ptr %27, align 8, !tbaa !32
  %29 = load ptr, ptr %2, align 8, !tbaa !9
  %30 = getelementptr inbounds nuw %struct.LexState, ptr %29, i32 0, i32 7
  store i32 %28, ptr %30, align 4, !tbaa !31
  %31 = load ptr, ptr %2, align 8, !tbaa !9
  %32 = getelementptr inbounds nuw %struct.LexState, ptr %31, i32 0, i32 8
  store i32 289, ptr %32, align 8, !tbaa !32
  %33 = load ptr, ptr %2, align 8, !tbaa !9
  %34 = getelementptr inbounds nuw %struct.LexState, ptr %33, i32 0, i32 2
  %35 = load ptr, ptr %2, align 8, !tbaa !9
  %36 = getelementptr inbounds nuw %struct.LexState, ptr %35, i32 0, i32 3
  call void @llvm.memcpy.p0.p0.i64(ptr align 8 %34, ptr align 8 %36, i64 8, i1 false), !tbaa.struct !67
  br label %37

37:                                               ; preds = %25, %18
  ret void
}