; Function Attrs: nounwind uwtable
define hidden void @lj_lex_next(ptr noundef initializes((116, 120)) %0) local_unnamed_addr #0 {
  %2 = getelementptr inbounds nuw i8, ptr %0, i64 112
  %3 = load i32, ptr %2, align 8, !tbaa !22
  %4 = getelementptr inbounds nuw i8, ptr %0, i64 116
  store i32 %3, ptr %4, align 4, !tbaa !23
  %5 = getelementptr inbounds nuw i8, ptr %0, i64 56
  %6 = load i32, ptr %5, align 8, !tbaa !21
  %7 = icmp eq i32 %6, 289
  br i1 %7, label %8, label %11, !prof !52

8:                                                ; preds = %1
  %9 = getelementptr inbounds nuw i8, ptr %0, i64 16
  %10 = tail call fastcc i32 @lex_scan(ptr noundef nonnull %0, ptr noundef nonnull %9)
  br label %15

11:                                               ; preds = %1
  store i32 289, ptr %5, align 8, !tbaa !21
  %12 = getelementptr inbounds nuw i8, ptr %0, i64 16
  %13 = getelementptr inbounds nuw i8, ptr %0, i64 24
  %14 = load i64, ptr %13, align 8, !tbaa !29
  store i64 %14, ptr %12, align 8, !tbaa !29
  br label %15

15:                                               ; preds = %11, %8
  %.sink = phi i32 [ %10, %8 ], [ %6, %11 ]
  %16 = getelementptr inbounds nuw i8, ptr %0, i64 52
  store i32 %.sink, ptr %16, align 4, !tbaa !20
  ret void
}